target datalayout = "e-m:e-p270:32:32-p271:32:32-p272:64:64-i64:64-i128:128-f80:128-n8:16:32:64-S128"
target triple = "x86_64-pc-linux-gnu"

@hf_srvloc_timestamp = internal global i32 0, align 4
@hf_srvloc_block_structure_descriptor = internal global i32 0, align 4
@hf_srvloc_authenticator_length = internal global i32 0, align 4
@hf_srvloc_authentication_block = internal global i32 0, align 4

; Function Attrs: null_pointer_is_valid sspstrong uwtable
define internal i32 @dissect_authblk(ptr noundef %0, i32 noundef %1, ptr noundef %2) #0 {
  %4 = alloca ptr, align 8
  %5 = alloca i32, align 4
  %6 = alloca ptr, align 8
  %7 = alloca i16, align 2
  store ptr %0, ptr %4, align 8
  store i32 %1, ptr %5, align 4
  store ptr %2, ptr %6, align 8
  call void @llvm.lifetime.start.p0(i64 2, ptr %7) #7
  %8 = load ptr, ptr %6, align 8
  %9 = load i32, ptr @hf_srvloc_timestamp, align 4
  %10 = load ptr, ptr %4, align 8
  %11 = load i32, ptr %5, align 4
  %12 = call ptr @proto_tree_add_item(ptr noundef %8, i32 noundef %9, ptr noundef %10, i32 noundef %11, i32 noundef 8, i32 noundef 2)
  %13 = load ptr, ptr %6, align 8
  %14 = load i32, ptr @hf_srvloc_block_structure_descriptor, align 4
  %15 = load ptr, ptr %4, align 8
  %16 = load i32, ptr %5, align 4
  %17 = add i32 %16, 8
  %18 = call ptr @proto_tree_add_item(ptr noundef %13, i32 noundef %14, ptr noundef %15, i32 noundef %17, i32 noundef 2, i32 noundef 0)
  %19 = load ptr, ptr %4, align 8
  %20 = load i32, ptr %5, align 4
  %21 = add i32 %20, 10
  %22 = call zeroext i16 @tvb_get_ntohs(ptr noundef %19, i32 noundef %21)
  store i16 %22, ptr %7, align 2
  %23 = load ptr, ptr %6, align 8
  %24 = load i32, ptr @hf_srvloc_authenticator_length, align 4
  %25 = load ptr, ptr %4, align 8
  %26 = load i32, ptr %5, align 4
  %27 = add i32 %26, 10
  %28 = call ptr @proto_tree_add_item(ptr noundef %23, i32 noundef %24, ptr noundef %25, i32 noundef %27, i32 noundef 2, i32 noundef 0)
  %29 = load i32, ptr %5, align 4
  %30 = add i32 %29, 12
  store i32 %30, ptr %5, align 4
  %31 = load ptr, ptr %6, align 8
  %32 = load i32, ptr @hf_srvloc_authentication_block, align 4
  %33 = load ptr, ptr %4, align 8
  %34 = load i32, ptr %5, align 4
  %35 = load i16, ptr %7, align 2
  %36 = zext i16 %35 to i32
  %37 = call ptr @proto_tree_add_item(ptr noundef %31, i32 noundef %32, ptr noundef %33, i32 noundef %34, i32 noundef %36, i32 noundef 0)
  %38 = load i16, ptr %7, align 2
  %39 = zext i16 %38 to i32
  %40 = load i32, ptr %5, align 4
  %41 = add i32 %40, %39
  store i32 %41, ptr %5, align 4
  %42 = load i32, ptr %5, align 4
  call void @llvm.lifetime.end.p0(i64 2, ptr %7) #7
  ret i32 %42
}