; Function Attrs: null_pointer_is_valid sspstrong uwtable
define internal fastcc noundef i32 @dissect_authblk(ptr noundef %0, i32 noundef %1, ptr noundef %2) unnamed_addr #0 {
  %4 = load i32, ptr @hf_srvloc_timestamp, align 4
  %5 = tail call ptr @proto_tree_add_item(ptr noundef %2, i32 noundef %4, ptr noundef %0, i32 noundef %1, i32 noundef 8, i32 noundef 2)
  %6 = load i32, ptr @hf_srvloc_block_structure_descriptor, align 4
  %7 = add i32 %1, 8
  %8 = tail call ptr @proto_tree_add_item(ptr noundef %2, i32 noundef %6, ptr noundef %0, i32 noundef %7, i32 noundef 2, i32 noundef 0)
  %9 = add i32 %1, 10
  %10 = tail call zeroext i16 @tvb_get_ntohs(ptr noundef %0, i32 noundef %9)
  %11 = load i32, ptr @hf_srvloc_authenticator_length, align 4
  %12 = tail call ptr @proto_tree_add_item(ptr noundef %2, i32 noundef %11, ptr noundef %0, i32 noundef %9, i32 noundef 2, i32 noundef 0)
  %13 = add i32 %1, 12
  %14 = load i32, ptr @hf_srvloc_authentication_block, align 4
  %15 = zext i16 %10 to i32
  %16 = tail call ptr @proto_tree_add_item(ptr noundef %2, i32 noundef %14, ptr noundef %0, i32 noundef %13, i32 noundef %15, i32 noundef 0)
  %17 = add i32 %13, %15
  ret i32 %17
}